target datalayout = "e-m:e-p270:32:32-p271:32:32-p272:64:64-i64:64-i128:128-f80:128-n8:16:32:64-S128"
target triple = "x86_64-pc-linux-gnu"

%struct.Vec_Ptr_t_ = type { i32, i32, ptr }

@.str.25 = private unnamed_addr constant [8 x i8] c"Const0T\00", align 1
@.str.26 = private unnamed_addr constant [8 x i8] c"Const1T\00", align 1
@.str.27 = private unnamed_addr constant [5 x i8] c"BufT\00", align 1
@.str.28 = private unnamed_addr constant [5 x i8] c"InvT\00", align 1
@.str.29 = private unnamed_addr constant [5 x i8] c"AndT\00", align 1
@.str.30 = private unnamed_addr constant [6 x i8] c"NandT\00", align 1
@.str.31 = private unnamed_addr constant [4 x i8] c"OrT\00", align 1
@.str.32 = private unnamed_addr constant [5 x i8] c"NorT\00", align 1
@.str.33 = private unnamed_addr constant [5 x i8] c"XorT\00", align 1
@.str.34 = private unnamed_addr constant [6 x i8] c"XnorT\00", align 1

; Function Attrs: nounwind uwtable
define internal void @Vec_PtrWriteEntry(ptr noundef %0, i32 noundef %1, ptr noundef %2) #0 {
  %4 = alloca ptr, align 8
  %5 = alloca i32, align 4
  %6 = alloca ptr, align 8
  store ptr %0, ptr %4, align 8
  store i32 %1, ptr %5, align 4
  store ptr %2, ptr %6, align 8
  %7 = load ptr, ptr %6, align 8
  %8 = load ptr, ptr %4, align 8
  %9 = getelementptr inbounds %struct.Vec_Ptr_t_, ptr %8, i32 0, i32 2
  %10 = load ptr, ptr %9, align 8
  %11 = load i32, ptr %5, align 4
  %12 = sext i32 %11 to i64
  %13 = getelementptr inbounds ptr, ptr %10, i64 %12
  store ptr %7, ptr %13, align 8
  ret void
}

; Function Attrs: nounwind uwtable
define internal ptr @Abc_UtilStrsav(ptr noundef %0) #0 {
  %2 = alloca ptr, align 8
  store ptr %0, ptr %2, align 8
  %3 = load ptr, ptr %2, align 8
  %4 = icmp ne ptr %3, null
  br i1 %4, label %5, label %13

5:                                                ; preds = %1
  %6 = load ptr, ptr %2, align 8
  %7 = call i64 @strlen(ptr noundef %6) #10
  %8 = add i64 %7, 1
  %9 = mul i64 1, %8
  %10 = call noalias ptr @malloc(i64 noundef %9) #11
  %11 = load ptr, ptr %2, align 8
  %12 = call ptr @strcpy(ptr noundef %10, ptr noundef %11) #9
  br label %14

13:                                               ; preds = %1
  br label %14

14:                                               ; preds = %13, %5
  %15 = phi ptr [ %12, %5 ], [ null, %13 ]
  ret ptr %15
}

; Function Attrs: nounwind uwtable
define internal ptr @Vec_PtrEntry(ptr noundef %0, i32 noundef %1) #0 {
  %3 = alloca ptr, align 8
  %4 = alloca i32, align 4
  store ptr %0, ptr %3, align 8
  store i32 %1, ptr %4, align 4
  %5 = load ptr, ptr %3, align 8
  %6 = getelementptr inbounds %struct.Vec_Ptr_t_, ptr %5, i32 0, i32 2
  %7 = load ptr, ptr %6, align 8
  %8 = load i32, ptr %4, align 4
  %9 = sext i32 %8 to i64
  %10 = getelementptr inbounds ptr, ptr %7, i64 %9
  %11 = load ptr, ptr %10, align 8
  ret ptr %11
}

; Function Attrs: nounwind uwtable
define void @Bac_PtrUpdateBox(ptr noundef %0, ptr noundef %1) #0 {
  %3 = alloca ptr, align 8
  %4 = alloca ptr, align 8
  %5 = alloca ptr, align 8
  %6 = alloca ptr, align 8
  %7 = alloca i32, align 4
  %8 = alloca ptr, align 8
  %9 = alloca ptr, align 8
  %10 = alloca ptr, align 8
  store ptr %0, ptr %3, align 8
  store ptr %1, ptr %4, align 8
  store i32 1, ptr %7, align 4
  %11 = call ptr (...) @Abc_FrameReadLibGen()
  store ptr %11, ptr %8, align 8
  %12 = load ptr, ptr %3, align 8
  %13 = call ptr @Vec_PtrEntry(ptr noundef %12, i32 noundef 0)
  store ptr %13, ptr %10, align 8
  %14 = load ptr, ptr %10, align 8
  %15 = call i32 @strcmp(ptr noundef %14, ptr noundef @.str.25) #10
  %16 = icmp ne i32 %15, 0
  br i1 %16, label %20, label %17

17:                                               ; preds = %2
  %18 = load ptr, ptr %4, align 8
  %19 = call ptr @Vec_PtrEntry(ptr noundef %18, i32 noundef 1)
  store ptr %19, ptr %9, align 8
  br label %93

20:                                               ; preds = %2
  %21 = load ptr, ptr %10, align 8
  %22 = call i32 @strcmp(ptr noundef %21, ptr noundef @.str.26) #10
  %23 = icmp ne i32 %22, 0
  br i1 %23, label %27, label %24

24:                                               ; preds = %20
  %25 = load ptr, ptr %4, align 8
  %26 = call ptr @Vec_PtrEntry(ptr noundef %25, i32 noundef 2)
  store ptr %26, ptr %9, align 8
  br label %92

27:                                               ; preds = %20
  %28 = load ptr, ptr %10, align 8
  %29 = call i32 @strcmp(ptr noundef %28, ptr noundef @.str.27) #10
  %30 = icmp ne i32 %29, 0
  br i1 %30, label %34, label %31

31:                                               ; preds = %27
  %32 = load ptr, ptr %4, align 8
  %33 = call ptr @Vec_PtrEntry(ptr noundef %32, i32 noundef 3)
  store ptr %33, ptr %9, align 8
  br label %91

34:                                               ; preds = %27
  %35 = load ptr, ptr %10, align 8
  %36 = call i32 @strcmp(ptr noundef %35, ptr noundef @.str.28) #10
  %37 = icmp ne i32 %36, 0
  br i1 %37, label %41, label %38

38:                                               ; preds = %34
  %39 = load ptr, ptr %4, align 8
  %40 = call ptr @Vec_PtrEntry(ptr noundef %39, i32 noundef 4)
  store ptr %40, ptr %9, align 8
  br label %90

41:                                               ; preds = %34
  %42 = load ptr, ptr %10, align 8
  %43 = call i32 @strcmp(ptr noundef %42, ptr noundef @.str.29) #10
  %44 = icmp ne i32 %43, 0
  br i1 %44, label %48, label %45

45:                                               ; preds = %41
  %46 = load ptr, ptr %4, align 8
  %47 = call ptr @Vec_PtrEntry(ptr noundef %46, i32 noundef 5)
  store ptr %47, ptr %9, align 8
  br label %89

48:                                               ; preds = %41
  %49 = load ptr, ptr %10, align 8
  %50 = call i32 @strcmp(ptr noundef %49, ptr noundef @.str.30) #10
  %51 = icmp ne i32 %50, 0
  br i1 %51, label %55, label %52

52:                                               ; preds = %48
  %53 = load ptr, ptr %4, align 8
  %54 = call ptr @Vec_PtrEntry(ptr noundef %53, i32 noundef 6)
  store ptr %54, ptr %9, align 8
  br label %88

55:                                               ; preds = %48
  %56 = load ptr, ptr %10, align 8
  %57 = call i32 @strcmp(ptr noundef %56, ptr noundef @.str.31) #10
  %58 = icmp ne i32 %57, 0
  br i1 %58, label %62, label %59

59:                                               ; preds = %55
  %60 = load ptr, ptr %4, align 8
  %61 = call ptr @Vec_PtrEntry(ptr noundef %60, i32 noundef 7)
  store ptr %61, ptr %9, align 8
  br label %87

62:                                               ; preds = %55
  %63 = load ptr, ptr %10, align 8
  %64 = call i32 @strcmp(ptr noundef %63, ptr noundef @.str.32) #10
  %65 = icmp ne i32 %64, 0
  br i1 %65, label %69, label %66

66:                                               ; preds = %62
  %67 = load ptr, ptr %4, align 8
  %68 = call ptr @Vec_PtrEntry(ptr noundef %67, i32 noundef 8)
  store ptr %68, ptr %9, align 8
  br label %86

69:                                               ; preds = %62
  %70 = load ptr, ptr %10, align 8
  %71 = call i32 @strcmp(ptr noundef %70, ptr noundef @.str.33) #10
  %72 = icmp ne i32 %71, 0
  br i1 %72, label %76, label %73

73:                                               ; preds = %69
  %74 = load ptr, ptr %4, align 8
  %75 = call ptr @Vec_PtrEntry(ptr noundef %74, i32 noundef 9)
  store ptr %75, ptr %9, align 8
  br label %85

76:                                               ; preds = %69
  %77 = load ptr, ptr %10, align 8
  %78 = call i32 @strcmp(ptr noundef %77, ptr noundef @.str.34) #10
  %79 = icmp ne i32 %78, 0
  br i1 %79, label %83, label %80

80:                                               ; preds = %76
  %81 = load ptr, ptr %4, align 8
  %82 = call ptr @Vec_PtrEntry(ptr noundef %81, i32 noundef 10)
  store ptr %82, ptr %9, align 8
  br label %84

83:                                               ; preds = %76
  br label %155

84:                                               ; preds = %80
  br label %85

85:                                               ; preds = %84, %73
  br label %86

86:                                               ; preds = %85, %66
  br label %87

87:                                               ; preds = %86, %59
  br label %88

88:                                               ; preds = %87, %52
  br label %89

89:                                               ; preds = %88, %45
  br label %90

90:                                               ; preds = %89, %38
  br label %91

91:                                               ; preds = %90, %31
  br label %92

92:                                               ; preds = %91, %24
  br label %93

93:                                               ; preds = %92, %17
  %94 = load ptr, ptr %10, align 8
  %95 = icmp ne ptr %94, null
  br i1 %95, label %96, label %98

96:                                               ; preds = %93
  %97 = load ptr, ptr %10, align 8
  call void @free(ptr noundef %97) #9
  store ptr null, ptr %10, align 8
  br label %99

98:                                               ; preds = %93
  br label %99

99:                                               ; preds = %98, %96
  %100 = load ptr, ptr %3, align 8
  %101 = load ptr, ptr %9, align 8
  %102 = call ptr @Abc_UtilStrsav(ptr noundef %101)
  call void @Vec_PtrWriteEntry(ptr noundef %100, i32 noundef 0, ptr noundef %102)
  %103 = load ptr, ptr %3, align 8
  %104 = call ptr @Vec_PtrEntry(ptr noundef %103, i32 noundef 1)
  store ptr %104, ptr %10, align 8
  %105 = load ptr, ptr %10, align 8
  %106 = icmp ne ptr %105, null
  br i1 %106, label %107, label %109

107:                                              ; preds = %99
  %108 = load ptr, ptr %10, align 8
  call void @free(ptr noundef %108) #9
  store ptr null, ptr %10, align 8
  br label %110

109:                                              ; preds = %99
  br label %110

110:                                              ; preds = %109, %107
  %111 = load ptr, ptr %3, align 8
  call void @Vec_PtrWriteEntry(ptr noundef %111, i32 noundef 1, ptr noundef null)
  %112 = load ptr, ptr %8, align 8
  %113 = load ptr, ptr %9, align 8
  %114 = call ptr @Mio_LibraryReadGateByName(ptr noundef %112, ptr noundef %113, ptr noundef null)
  store ptr %114, ptr %5, align 8
  %115 = load ptr, ptr %5, align 8
  %116 = call ptr @Mio_GateReadPins(ptr noundef %115)
  store ptr %116, ptr %6, align 8
  br label %117

117:                                              ; preds = %139, %110
  %118 = load ptr, ptr %6, align 8
  %119 = icmp ne ptr %118, null
  br i1 %119, label %120, label %142

120:                                              ; preds = %117
  %121 = load ptr, ptr %3, align 8
  %122 = load i32, ptr %7, align 4
  %123 = mul nsw i32 2, %122
  %124 = call ptr @Vec_PtrEntry(ptr noundef %121, i32 noundef %123)
  store ptr %124, ptr %10, align 8
  %125 = load ptr, ptr %10, align 8
  %126 = icmp ne ptr %125, null
  br i1 %126, label %127, label %129

127:                                              ; preds = %120
  %128 = load ptr, ptr %10, align 8
  call void @free(ptr noundef %128) #9
  store ptr null, ptr %10, align 8
  br label %130

129:                                              ; preds = %120
  br label %130

130:                                              ; preds = %129, %127
  %131 = load ptr, ptr %6, align 8
  %132 = call ptr @Mio_PinReadName(ptr noundef %131)
  store ptr %132, ptr %9, align 8
  %133 = load ptr, ptr %3, align 8
  %134 = load i32, ptr %7, align 4
  %135 = add nsw i32 %134, 1
  store i32 %135, ptr %7, align 4
  %136 = mul nsw i32 2, %134
  %137 = load ptr, ptr %9, align 8
  %138 = call ptr @Abc_UtilStrsav(ptr noundef %137)
  call void @Vec_PtrWriteEntry(ptr noundef %133, i32 noundef %136, ptr noundef %138)
  br label %139

139:                                              ; preds = %130
  %140 = load ptr, ptr %6, align 8
  %141 = call ptr @Mio_PinReadNext(ptr noundef %140)
  store ptr %141, ptr %6, align 8
  br label %117, !llvm.loop !17

142:                                              ; preds = %117
  %143 = load ptr, ptr %3, align 8
  %144 = load i32, ptr %7, align 4
  %145 = mul nsw i32 2, %144
  %146 = call ptr @Vec_PtrEntry(ptr noundef %143, i32 noundef %145)
  store ptr %146, ptr %10, align 8
  %147 = load ptr, ptr %5, align 8
  %148 = call ptr @Mio_GateReadOutName(ptr noundef %147)
  store ptr %148, ptr %9, align 8
  %149 = load ptr, ptr %3, align 8
  %150 = load i32, ptr %7, align 4
  %151 = add nsw i32 %150, 1
  store i32 %151, ptr %7, align 4
  %152 = mul nsw i32 2, %150
  %153 = load ptr, ptr %9, align 8
  %154 = call ptr @Abc_UtilStrsav(ptr noundef %153)
  call void @Vec_PtrWriteEntry(ptr noundef %149, i32 noundef %152, ptr noundef %154)
  br label %155

155:                                              ; preds = %142, %83
  ret void
}