; Function Attrs: nounwind uwtable
define void @Bac_PtrUpdateBox(ptr noundef readonly captures(none) %0, ptr noundef readonly captures(none) %1) local_unnamed_addr #0 {
  %3 = tail call ptr (...) @Abc_FrameReadLibGen() #14
  %4 = getelementptr i8, ptr %0, i64 8
  %.val76 = load ptr, ptr %4, align 8
  %5 = load ptr, ptr %.val76, align 8
  %6 = tail call i32 @strcmp(ptr noundef nonnull dereferenceable(1) %5, ptr noundef nonnull dereferenceable(8) @.str.25) #16
  %.not = icmp eq i32 %6, 0
  br i1 %.not, label %25, label %7

7:                                                ; preds = %2
  %8 = tail call i32 @strcmp(ptr noundef nonnull dereferenceable(1) %5, ptr noundef nonnull dereferenceable(8) @.str.26) #16
  %.not52 = icmp eq i32 %8, 0
  br i1 %.not52, label %25, label %9

9:                                                ; preds = %7
  %10 = tail call i32 @strcmp(ptr noundef nonnull dereferenceable(1) %5, ptr noundef nonnull dereferenceable(5) @.str.27) #16
  %.not53 = icmp eq i32 %10, 0
  br i1 %.not53, label %25, label %11

11:                                               ; preds = %9
  %12 = tail call i32 @strcmp(ptr noundef nonnull dereferenceable(1) %5, ptr noundef nonnull dereferenceable(5) @.str.28) #16
  %.not54 = icmp eq i32 %12, 0
  br i1 %.not54, label %25, label %13

13:                                               ; preds = %11
  %14 = tail call i32 @strcmp(ptr noundef nonnull dereferenceable(1) %5, ptr noundef nonnull dereferenceable(5) @.str.29) #16
  %.not55 = icmp eq i32 %14, 0
  br i1 %.not55, label %25, label %15

15:                                               ; preds = %13
  %16 = tail call i32 @strcmp(ptr noundef nonnull dereferenceable(1) %5, ptr noundef nonnull dereferenceable(6) @.str.30) #16
  %.not56 = icmp eq i32 %16, 0
  br i1 %.not56, label %25, label %17

17:                                               ; preds = %15
  %18 = tail call i32 @strcmp(ptr noundef nonnull dereferenceable(1) %5, ptr noundef nonnull dereferenceable(4) @.str.31) #16
  %.not57 = icmp eq i32 %18, 0
  br i1 %.not57, label %25, label %19

19:                                               ; preds = %17
  %20 = tail call i32 @strcmp(ptr noundef nonnull dereferenceable(1) %5, ptr noundef nonnull dereferenceable(5) @.str.32) #16
  %.not58 = icmp eq i32 %20, 0
  br i1 %.not58, label %25, label %21

21:                                               ; preds = %19
  %22 = tail call i32 @strcmp(ptr noundef nonnull dereferenceable(1) %5, ptr noundef nonnull dereferenceable(5) @.str.33) #16
  %.not59 = icmp eq i32 %22, 0
  br i1 %.not59, label %25, label %23

23:                                               ; preds = %21
  %24 = tail call i32 @strcmp(ptr noundef nonnull dereferenceable(1) %5, ptr noundef nonnull dereferenceable(6) @.str.34) #16
  %.not60 = icmp eq i32 %24, 0
  br i1 %.not60, label %25, label %65

25:                                               ; preds = %23, %21, %19, %17, %15, %13, %11, %9, %7, %2
  %.sink = phi i64 [ 8, %2 ], [ 16, %7 ], [ 24, %9 ], [ 32, %11 ], [ 40, %13 ], [ 48, %15 ], [ 56, %17 ], [ 64, %19 ], [ 72, %21 ], [ 80, %23 ]
  %26 = getelementptr i8, ptr %1, i64 8
  %.val75 = load ptr, ptr %26, align 8
  %27 = getelementptr inbounds nuw i8, ptr %.val75, i64 %.sink
  %.0 = load ptr, ptr %27, align 8
  tail call void @free(ptr noundef nonnull %5) #14
  %.not.i = icmp eq ptr %.0, null
  br i1 %.not.i, label %Abc_UtilStrsav.exit, label %28

28:                                               ; preds = %25
  %29 = tail call i64 @strlen(ptr noundef nonnull readonly dereferenceable(1) %.0) #16
  %30 = add i64 %29, 1
  %31 = tail call noalias ptr @malloc(i64 noundef %30) #15
  %32 = tail call ptr @strcpy(ptr noundef nonnull dereferenceable(1) %31, ptr noundef nonnull readonly dereferenceable(1) %.0) #14
  br label %Abc_UtilStrsav.exit

Abc_UtilStrsav.exit:                              ; preds = %25, %28
  %33 = phi ptr [ %31, %28 ], [ null, %25 ]
  %.val80 = load ptr, ptr %4, align 8
  store ptr %33, ptr %.val80, align 8
  %.val65 = load ptr, ptr %4, align 8
  %34 = getelementptr inbounds nuw i8, ptr %.val65, i64 8
  %35 = load ptr, ptr %34, align 8
  %.not61 = icmp eq ptr %35, null
  br i1 %.not61, label %37, label %36

36:                                               ; preds = %Abc_UtilStrsav.exit
  tail call void @free(ptr noundef nonnull %35) #14
  %.val79.pre = load ptr, ptr %4, align 8
  br label %37

37:                                               ; preds = %Abc_UtilStrsav.exit, %36
  %.val79 = phi ptr [ %.val65, %Abc_UtilStrsav.exit ], [ %.val79.pre, %36 ]
  %38 = getelementptr inbounds nuw i8, ptr %.val79, i64 8
  store ptr null, ptr %38, align 8
  %39 = tail call ptr @Mio_LibraryReadGateByName(ptr noundef %3, ptr noundef %.0, ptr noundef null) #14
  %40 = tail call ptr @Mio_GateReadPins(ptr noundef %39) #14
  %.not6285 = icmp eq ptr %40, null
  br i1 %.not6285, label %._crit_edge, label %.lr.ph

.lr.ph:                                           ; preds = %37, %Abc_UtilStrsav.exit82
  %indvars.iv = phi i64 [ %indvars.iv.next, %Abc_UtilStrsav.exit82 ], [ 1, %37 ]
  %.04787 = phi ptr [ %54, %Abc_UtilStrsav.exit82 ], [ %40, %37 ]
  %41 = shl nuw nsw i64 %indvars.iv, 1
  %.val64 = load ptr, ptr %4, align 8
  %42 = getelementptr inbounds nuw ptr, ptr %.val64, i64 %41
  %43 = load ptr, ptr %42, align 8
  %.not63 = icmp eq ptr %43, null
  br i1 %.not63, label %45, label %44

44:                                               ; preds = %.lr.ph
  tail call void @free(ptr noundef nonnull %43) #14
  br label %45

45:                                               ; preds = %.lr.ph, %44
  %46 = tail call ptr @Mio_PinReadName(ptr noundef nonnull %.04787) #14
  %indvars.iv.next = add nuw nsw i64 %indvars.iv, 1
  %.not.i81 = icmp eq ptr %46, null
  br i1 %.not.i81, label %Abc_UtilStrsav.exit82, label %47

47:                                               ; preds = %45
  %48 = tail call i64 @strlen(ptr noundef nonnull readonly dereferenceable(1) %46) #16
  %49 = add i64 %48, 1
  %50 = tail call noalias ptr @malloc(i64 noundef %49) #15
  %51 = tail call ptr @strcpy(ptr noundef nonnull dereferenceable(1) %50, ptr noundef nonnull readonly dereferenceable(1) %46) #14
  br label %Abc_UtilStrsav.exit82

Abc_UtilStrsav.exit82:                            ; preds = %45, %47
  %52 = phi ptr [ %50, %47 ], [ null, %45 ]
  %.val78 = load ptr, ptr %4, align 8
  %53 = getelementptr inbounds nuw ptr, ptr %.val78, i64 %41
  store ptr %52, ptr %53, align 8
  %54 = tail call ptr @Mio_PinReadNext(ptr noundef nonnull %.04787) #14
  %.not62 = icmp eq ptr %54, null
  br i1 %.not62, label %._crit_edge.loopexit, label %.lr.ph, !llvm.loop !17

._crit_edge.loopexit:                             ; preds = %Abc_UtilStrsav.exit82
  %55 = shl nuw i64 %indvars.iv.next, 1
  %56 = and i64 %55, 4294967294
  br label %._crit_edge

._crit_edge:                                      ; preds = %._crit_edge.loopexit, %37
  %.048.lcssa = phi i64 [ 2, %37 ], [ %56, %._crit_edge.loopexit ]
  %57 = tail call ptr @Mio_GateReadOutName(ptr noundef %39) #14
  %.not.i83 = icmp eq ptr %57, null
  br i1 %.not.i83, label %Abc_UtilStrsav.exit84, label %58

58:                                               ; preds = %._crit_edge
  %59 = tail call i64 @strlen(ptr noundef nonnull readonly dereferenceable(1) %57) #16
  %60 = add i64 %59, 1
  %61 = tail call noalias ptr @malloc(i64 noundef %60) #15
  %62 = tail call ptr @strcpy(ptr noundef nonnull dereferenceable(1) %61, ptr noundef nonnull readonly dereferenceable(1) %57) #14
  br label %Abc_UtilStrsav.exit84

Abc_UtilStrsav.exit84:                            ; preds = %._crit_edge, %58
  %63 = phi ptr [ %61, %58 ], [ null, %._crit_edge ]
  %.val77 = load ptr, ptr %4, align 8
  %64 = getelementptr inbounds nuw ptr, ptr %.val77, i64 %.048.lcssa
  store ptr %63, ptr %64, align 8
  br label %65

65:                                               ; preds = %23, %Abc_UtilStrsav.exit84
  ret void
}